

 Start  Stop   Length Name                   Class
 00000H 02C3DH 02C3EH @CODE                  CODE
 02C3EH 02C40H 00003H @CODEB                 CODEB
 02C50H 02C6FH 00020H @DATAB                 DATAB
 02C70H 02DD3H 00164H @DATAC                 DATAC
 02DD4H 02E68H 00095H @DATAI                 DATAI
 02E69H 02E69H 00000H @DATAT                 DATAT
 02E69H 03E76H 0100EH @DATAU                 DATAU
 03E77H 03E77H 00000H @DATAV                 DATAV
 03E80H 03E80H 00000H @STACK                 STACK

 Origin   Group
 0000:0   DGROUP

  Address         Publics by Name

 0000:2C1D       $ISWITCH
 0000:2BC5       $LLSHIFT
 0000:2BF1       $LRSSHIFT
 0000:2B24       $LSDIV
 0000:2B2E       $LSMOD
 0000:2B29       $LUDIV
 0000:2B33       $LUMOD
 0000:0000       $MAIN
 0000:3E77       @END
 0000:09AA       ADJUST
 0000:1E6F       ALLOC_ME
 0000:20FF       ALLOWED
 0000:2C60       BRKSIZE
 0000:2341       CALLM1
 0000:237B       CALLM3
 0000:23D6       CALLX
 0000:2DDF       CALL_VEC
 0000:2447       CLOSE
 0000:2DDB       CORE_BIT
 0000:2DD6       CORE_NAM
 0000:2461       CREAT
 0000:2C50       DATA_ORG
 0000:31A1       DONT_REP
 0000:1907       DO_ALARM
 0000:0937       DO_BRK
 0000:01B8       DO_BRK2
 0000:0CB3       DO_EXEC
 0000:03F9       DO_FORK
 0000:1D24       DO_GETSE
 0000:15D6       DO_KILL
 0000:15EF       DO_KSIG
 0000:069E       DO_MM_EX
 0000:19BA       DO_PAUSE
 0000:150F       DO_SIGNA
 0000:075D       DO_WAIT
 0000:3E5D       ERRNO
 0000:31D9       ERR_CODE
 0000:1EEB       FREE_MEM
 0000:2478       FSTAT
 0000:249E       GET_BASE
 0000:24A1       GET_SIZE
 0000:24A5       GET_TOT_
 0000:2422       LEN
 0000:3E5F       M
 0000:0019       MAIN
 0000:2069       MAX_HOLE
 0000:220A       MEM_COPY
 0000:20A8       MEM_INIT
 0000:31D7       MM_CALL
 0000:06BC       MM_EXIT
 0000:31A5       MM_IN
 0000:31BD       MM_OUT
 0000:31DF       MM_STACK
 0000:319F       MP
 0000:3B5F       MPROC
 0000:227C       NO_SYS
 0000:24CB       OPEN
 0000:2286       PANIC
 0000:24E2       PRINTK
 0000:31A3       PROCS_IN
 0000:22C9       PUTC
 0000:292C       READ
 0000:295A       RECEIVE
 0000:0105       REPLY
 0000:31DB       RESULT2
 0000:31DD       RES_PTR
 0000:2954       SEND
 0000:2960       SENDREC
 0000:2960       SEND_REC
 0000:1928       SET_ALAR
 0000:182A       SIG_PROC
 0000:0BA5       SIZE_OK
 0000:2C62       SP_LIMIT
 0000:2DDD       STACKPT
 0000:0C42       STACK_FA
 0000:2ACF       SYS_ABOR
 0000:2A37       SYS_COPY
 0000:29FD       SYS_EXEC
 0000:29DE       SYS_FORK
 0000:2990       SYS_GETS
 0000:2A1A       SYS_NEWM
 0000:29B7       SYS_SIG
 0000:2A66       SYS_TIME
 0000:2973       SYS_XIT
 0000:2AE8       TELL_FS
 0000:19D9       UNPAUSE
 0000:31D5       WHO
 0000:2B06       WRITE

  Address         Publics by Value

 0000:0000       $MAIN
 0000:0019       MAIN
 0000:0105       REPLY
 0000:01B8       DO_BRK2
 0000:03F9       DO_FORK
 0000:069E       DO_MM_EX
 0000:06BC       MM_EXIT
 0000:075D       DO_WAIT
 0000:0937       DO_BRK
 0000:09AA       ADJUST
 0000:0BA5       SIZE_OK
 0000:0C42       STACK_FA
 0000:0CB3       DO_EXEC
 0000:150F       DO_SIGNA
 0000:15D6       DO_KILL
 0000:15EF       DO_KSIG
 0000:182A       SIG_PROC
 0000:1907       DO_ALARM
 0000:1928       SET_ALAR
 0000:19BA       DO_PAUSE
 0000:19D9       UNPAUSE
 0000:1D24       DO_GETSE
 0000:1E6F       ALLOC_ME
 0000:1EEB       FREE_MEM
 0000:2069       MAX_HOLE
 0000:20A8       MEM_INIT
 0000:20FF       ALLOWED
 0000:220A       MEM_COPY
 0000:227C       NO_SYS
 0000:2286       PANIC
 0000:22C9       PUTC
 0000:2341       CALLM1
 0000:237B       CALLM3
 0000:23D6       CALLX
 0000:2422       LEN
 0000:2447       CLOSE
 0000:2461       CREAT
 0000:2478       FSTAT
 0000:249E       GET_BASE
 0000:24A1       GET_SIZE
 0000:24A5       GET_TOT_
 0000:24CB       OPEN
 0000:24E2       PRINTK
 0000:292C       READ
 0000:2954       SEND
 0000:295A       RECEIVE
 0000:2960       SENDREC
 0000:2960       SEND_REC
 0000:2973       SYS_XIT
 0000:2990       SYS_GETS
 0000:29B7       SYS_SIG
 0000:29DE       SYS_FORK
 0000:29FD       SYS_EXEC
 0000:2A1A       SYS_NEWM
 0000:2A37       SYS_COPY
 0000:2A66       SYS_TIME
 0000:2ACF       SYS_ABOR
 0000:2AE8       TELL_FS
 0000:2B06       WRITE
 0000:2B24       $LSDIV
 0000:2B29       $LUDIV
 0000:2B2E       $LSMOD
 0000:2B33       $LUMOD
 0000:2BC5       $LLSHIFT
 0000:2BF1       $LRSSHIFT
 0000:2C1D       $ISWITCH
 0000:2C50       DATA_ORG
 0000:2C60       BRKSIZE
 0000:2C62       SP_LIMIT
 0000:2DD6       CORE_NAM
 0000:2DDB       CORE_BIT
 0000:2DDD       STACKPT
 0000:2DDF       CALL_VEC
 0000:319F       MP
 0000:31A1       DONT_REP
 0000:31A3       PROCS_IN
 0000:31A5       MM_IN
 0000:31BD       MM_OUT
 0000:31D5       WHO
 0000:31D7       MM_CALL
 0000:31D9       ERR_CODE
 0000:31DB       RESULT2
 0000:31DD       RES_PTR
 0000:31DF       MM_STACK
 0000:3B5F       MPROC
 0000:3E5D       ERRNO
 0000:3E5F       M
 0000:3E77       @END

Program entry point at 0000:0000
