

 Start  Stop   Length Name                   Class
 00000H 007A0H 007A1H @CODE                  CODE
 007A1H 007A3H 00003H @CODEB                 CODEB
 007B0H 007CFH 00020H @DATAB                 DATAB
 007D0H 00850H 00081H @DATAC                 DATAC
 00851H 0085EH 0000EH @DATAI                 DATAI
 0085FH 0085FH 00000H @DATAT                 DATAT
 0085FH 009B0H 00152H @DATAU                 DATAU
 009B1H 009B1H 00000H @DATAV                 DATAV
 009C0H 009C0H 00000H @STACK                 STACK

 Origin   Group
 0000:0   DGROUP

  Address         Publics by Name

 0000:0000       $MAIN
 0000:09B1       @END
 0000:0851       @NAME
 0000:0875       @STACK
 0000:0752       BEGSIG
 0000:07C0       BRKSIZE
 0000:028E       CALLM1
 0000:02C8       CALLM3
 0000:0323       CALLX
 0000:0394       CLOSE
 0000:07B0       DATA_ORG
 0000:0975       ERRNO
 0000:03AE       EXECL
 0000:03C3       EXECLE
 0000:05C8       EXECN
 0000:03F0       EXECV
 0000:0404       EXECVE
 0000:0612       EXIT
 0000:062C       FORK
 0000:0237       GETLINE
 0000:036F       LEN
 0000:0999       M
 0000:0019       MAIN
 0000:0977       NULLPTR
 0000:0644       OPEN
 0000:085F       PID
 0000:0873       PIDCT
 0000:065B       READ
 0000:0788       RECEIVE
 0000:0782       SEND
 0000:078E       SENDREC
 0000:078E       SEND_REC
 0000:0682       SIGNAL
 0000:07C2       SP_LIMIT
 0000:085B       STACKPT
 0000:017B       STARTUP
 0000:06EF       SYNC
 0000:0979       VECTAB
 0000:0707       WAIT
 0000:0734       WRITE

  Address         Publics by Value

 0000:0000       $MAIN
 0000:0019       MAIN
 0000:017B       STARTUP
 0000:0237       GETLINE
 0000:028E       CALLM1
 0000:02C8       CALLM3
 0000:0323       CALLX
 0000:036F       LEN
 0000:0394       CLOSE
 0000:03AE       EXECL
 0000:03C3       EXECLE
 0000:03F0       EXECV
 0000:0404       EXECVE
 0000:05C8       EXECN
 0000:0612       EXIT
 0000:062C       FORK
 0000:0644       OPEN
 0000:065B       READ
 0000:0682       SIGNAL
 0000:06EF       SYNC
 0000:0707       WAIT
 0000:0734       WRITE
 0000:0752       BEGSIG
 0000:0782       SEND
 0000:0788       RECEIVE
 0000:078E       SENDREC
 0000:078E       SEND_REC
 0000:07B0       DATA_ORG
 0000:07C0       BRKSIZE
 0000:07C2       SP_LIMIT
 0000:0851       @NAME
 0000:085B       STACKPT
 0000:085F       PID
 0000:0873       PIDCT
 0000:0875       @STACK
 0000:0975       ERRNO
 0000:0977       NULLPTR
 0000:0979       VECTAB
 0000:0999       M
 0000:09B1       @END

Program entry point at 0000:0000
