
 Start  Stop   Length Name               Class

 00000H 056A9H 056AAH _TEXT              CODE
 056B0H 05CD9H 0062AH _DATA              DATA
 05CDAH 0620FH 00536H _BSS               BSS
 06210H 06210H 00000H _BSSEND            BSS
 06210H 0760FH 01400H _STACK             STACK

  Address         Publics by Name

 0000:0000       $main
 056B:062A       begbss
 056B:0B60       endbss
 0000:4E06       SCOPY@
 0000:4E22       SPUSH@
 0000:4EB6       _abort
 0000:40F3       _addword
 0000:07B8       _any
 0000:0787       _anys
 056B:0B0F       _areanum
 0000:0CB7       _assign
 0000:4DD5       _begsig
 0000:4EC7       _brk
 056B:0B2B       _brklist
 056B:0000       _brksize
 0000:4F46       _callm1
 0000:4F7C       _callm3
 0000:4FC9       _callx
 0000:5024       _chdir
 0000:0D2E       _checkname
 0000:503E       _close
 0000:4900       _closeall
 0000:48EB       _closef
 0000:49B9       _closepipe
 0000:1CC9       _collect
 056B:0B2D       _cprompt
 0000:5064       _creat
 0000:08CD       _digit
 0000:30FD       _dobreak
 0000:2AF1       _dochdir
 0000:3116       _docontinue
 0000:2D23       _dodot
 0000:2F05       _doeval
 0000:2CAA       _doexec
 0000:318B       _doexit
 0000:31B3       _doexport
 0000:2AEC       _dolabel
 056B:0680       _dolc
 0000:4622       _dolchar
 0000:2BBF       _dologin
 056B:0A8F       _dolv
 0000:2E59       _doread
 0000:31D2       _doreadonly
 0000:3256       _doset
 0000:2B49       _doshift
 0000:2F31       _dotrap
 0000:2C23       _doumask
 0000:2DED       _dowait
 0000:1D5E       _dual
 0000:507E       _dup
 0000:50A4       _dup2
 056B:000C       _e
 056B:0006       _elinep
 056B:0002       _environ
 0000:0DF1       _eqname
 0000:06B5       _err
 056B:0B36       _errno
 056B:0A93       _errpt
 0000:33EF       _eval
 0000:34BF       _evalstr
 056B:0A95       _execflg
 0000:50CE       _execl
 0000:50E5       _execle
 0000:52A1       _execn
 0000:1E3F       _execute
 0000:510B       _execv
 0000:5121       _execve
 0000:52CE       _exit
 0000:0C4E       _export
 056B:0AA3       _exstat
 0000:0656       _fail
 056B:0B11       _failpt
 0000:46F8       _filechar
 056B:0004       _flag
 056B:0647       _flags
 0000:5325       _fork
 0000:10E6       _freearea
 0000:10C4       _freecell
 0000:4D26       _freehere
 056B:0674       _func
 0000:112F       _garbage
 0000:1122       _getarea
 0000:43BC       _getc
 0000:0FCF       _getcell
 0000:5347       _geteuid
 0000:4A89       _gethere
 0000:309A       _getn
 0000:5378       _getpid
 0000:3039       _getsig
 0000:4166       _getwords
 056B:0A6A       _gflg
 0000:3C34       _glob
 0000:41B9       _glob0
 0000:41DC       _glob1
 0000:4329       _glob2
 0000:4358       _glob3
 0000:3DFE       _globname
 056B:0676       _globv
 0000:0E48       _gmatch
 0000:4778       _gravechar
 0000:4741       _herechar
 0000:4C26       _herein
 056B:0B29       _homedir
 056B:0A6D       _ifs
 0000:33C0       _inbuilt
 0000:0F8C       _initarea
 056B:0661       _inparse
 056B:0645       _intr
 056B:000A       _inword
 0000:44D4       _ioecho
 056B:0B13       _iolist
 0000:2537       _iosetup
 056B:0AA7       _iostack
 0000:0C79       _isassign
 0000:539A       _isatty
 056B:0AA5       _isbreak
 0000:07F8       _itoa
 0000:53C5       _kill
 0000:0665       _leave
 0000:5006       _len
 0000:08EA       _letnum
 0000:08A1       _letter
 056B:0682       _line
 0000:482F       _linechar
 0000:4E83       _longjmp
 0000:0A16       _lookup
 0000:53EA       _lseek
 056B:0612       _M
 0000:0022       _main
 0000:3481       _makenv
 0000:49D9       _markhere
 0000:439B       _memcpy
 056B:0B2F       _multiline
 0000:0B62       _nameval
 0000:06FC       _newenv
 0000:04C4       _newfile
 0000:40CD       _newword
 0000:0859       _next
 0000:4862       _nextchar
 0000:45A1       _nlchar
 056B:0008       _null
 0000:0517       _onecommand
 0000:087B       _onintr
 0000:542C       _open
 0000:4992       _openpipe
 056B:0B19       _ourtrap
 056B:0A97       _outtree
 056B:0A6B       _path
 0000:5446       _pipe
 0000:1E3A       _printf
 0000:48D5       _prn
 056B:0B15       _prompt
 0000:489E       _prs
 0000:44F4       _pushio
 0000:48BF       _putc
 0000:07E1       _putn
 0000:0D6C       _putvlist
 056B:002F       _qflag
 0000:479F       _qgravechar
 0000:074D       _quitenv
 0000:548E       _read
 0000:4449       _readc
 0000:4DBC       _receive
 0000:4916       _remap
 056B:00D0       _restab
 0000:28F6       _rexecve
 0000:1856       _rlookup
 0000:0C5A       _ronly
 0000:2A26       _run
 0000:09D0       _runtrap
 0000:4F04       _sbrk
 0000:4D1F       _scraphere
 056B:0020       _search
 0000:4DB6       _send
 0000:4DC2       _sendrec
 0000:110C       _setarea
 0000:458C       _setbase
 0000:047A       _setdash
 0000:4E49       _setjmp
 0000:3064       _setsig
 0000:28CD       _setstatus
 0000:0B4F       _setval
 056B:0A91       _shell
 056B:0018       _shellname
 0000:099D       _sig
 0000:54BB       _signal
 0000:0911       _space
 0000:5522       _stat
 0000:46CE       _strchar
 0000:5555       _strcmp
 0000:5587       _strlen
 0000:55A3       _strncpy
 0000:093D       _strsave
 0000:379F       _subgetc
 0000:55E3       _sync
 056B:0A9B       _talking
 056B:0A9D       _temparg
 0000:4D71       _tempname
 056B:0A6F       _trap
 056B:0B31       _trapset
 0000:5606       _umask
 0000:4431       _unget
 0000:562C       _unlink
 0000:3C11       _unquote
 0000:3387       _varput
 056B:0B40       _vectab
 056B:0A99       _vlist
 0000:5646       _wait
 0000:27F3       _waitfor
 0000:0684       _warn
 0000:45D4       _wdchar
 056B:0B17       _wdlist
 0000:5684       _write
 0000:0985       _xfree
 0000:19AF       _yyerror
 056B:0B33       _yynerrs
 0000:1170       _yyparse
 0000:5300       __exit
 056B:0B3E       ___cleanup

  Address         Publics by Value

 0000:0000       $main
 0000:0022       _main
 0000:047A       _setdash
 0000:04C4       _newfile
 0000:0517       _onecommand
 0000:0656       _fail
 0000:0665       _leave
 0000:0684       _warn
 0000:06B5       _err
 0000:06FC       _newenv
 0000:074D       _quitenv
 0000:0787       _anys
 0000:07B8       _any
 0000:07E1       _putn
 0000:07F8       _itoa
 0000:0859       _next
 0000:087B       _onintr
 0000:08A1       _letter
 0000:08CD       _digit
 0000:08EA       _letnum
 0000:0911       _space
 0000:093D       _strsave
 0000:0985       _xfree
 0000:099D       _sig
 0000:09D0       _runtrap
 0000:0A16       _lookup
 0000:0B4F       _setval
 0000:0B62       _nameval
 0000:0C4E       _export
 0000:0C5A       _ronly
 0000:0C79       _isassign
 0000:0CB7       _assign
 0000:0D2E       _checkname
 0000:0D6C       _putvlist
 0000:0DF1       _eqname
 0000:0E48       _gmatch
 0000:0F8C       _initarea
 0000:0FCF       _getcell
 0000:10C4       _freecell
 0000:10E6       _freearea
 0000:110C       _setarea
 0000:1122       _getarea
 0000:112F       _garbage
 0000:1170       _yyparse
 0000:1856       _rlookup
 0000:19AF       _yyerror
 0000:1CC9       _collect
 0000:1D5E       _dual
 0000:1E3A       _printf
 0000:1E3F       _execute
 0000:2537       _iosetup
 0000:27F3       _waitfor
 0000:28CD       _setstatus
 0000:28F6       _rexecve
 0000:2A26       _run
 0000:2AEC       _dolabel
 0000:2AF1       _dochdir
 0000:2B49       _doshift
 0000:2BBF       _dologin
 0000:2C23       _doumask
 0000:2CAA       _doexec
 0000:2D23       _dodot
 0000:2DED       _dowait
 0000:2E59       _doread
 0000:2F05       _doeval
 0000:2F31       _dotrap
 0000:3039       _getsig
 0000:3064       _setsig
 0000:309A       _getn
 0000:30FD       _dobreak
 0000:3116       _docontinue
 0000:318B       _doexit
 0000:31B3       _doexport
 0000:31D2       _doreadonly
 0000:3256       _doset
 0000:3387       _varput
 0000:33C0       _inbuilt
 0000:33EF       _eval
 0000:3481       _makenv
 0000:34BF       _evalstr
 0000:379F       _subgetc
 0000:3C11       _unquote
 0000:3C34       _glob
 0000:3DFE       _globname
 0000:40CD       _newword
 0000:40F3       _addword
 0000:4166       _getwords
 0000:41B9       _glob0
 0000:41DC       _glob1
 0000:4329       _glob2
 0000:4358       _glob3
 0000:439B       _memcpy
 0000:43BC       _getc
 0000:4431       _unget
 0000:4449       _readc
 0000:44D4       _ioecho
 0000:44F4       _pushio
 0000:458C       _setbase
 0000:45A1       _nlchar
 0000:45D4       _wdchar
 0000:4622       _dolchar
 0000:46CE       _strchar
 0000:46F8       _filechar
 0000:4741       _herechar
 0000:4778       _gravechar
 0000:479F       _qgravechar
 0000:482F       _linechar
 0000:4862       _nextchar
 0000:489E       _prs
 0000:48BF       _putc
 0000:48D5       _prn
 0000:48EB       _closef
 0000:4900       _closeall
 0000:4916       _remap
 0000:4992       _openpipe
 0000:49B9       _closepipe
 0000:49D9       _markhere
 0000:4A89       _gethere
 0000:4C26       _herein
 0000:4D1F       _scraphere
 0000:4D26       _freehere
 0000:4D71       _tempname
 0000:4DB6       _send
 0000:4DBC       _receive
 0000:4DC2       _sendrec
 0000:4DD5       _begsig
 0000:4E06       SCOPY@
 0000:4E22       SPUSH@
 0000:4E49       _setjmp
 0000:4E83       _longjmp
 0000:4EB6       _abort
 0000:4EC7       _brk
 0000:4F04       _sbrk
 0000:4F46       _callm1
 0000:4F7C       _callm3
 0000:4FC9       _callx
 0000:5006       _len
 0000:5024       _chdir
 0000:503E       _close
 0000:5064       _creat
 0000:507E       _dup
 0000:50A4       _dup2
 0000:50CE       _execl
 0000:50E5       _execle
 0000:510B       _execv
 0000:5121       _execve
 0000:52A1       _execn
 0000:52CE       _exit
 0000:5300       __exit
 0000:5325       _fork
 0000:5347       _geteuid
 0000:5378       _getpid
 0000:539A       _isatty
 0000:53C5       _kill
 0000:53EA       _lseek
 0000:542C       _open
 0000:5446       _pipe
 0000:548E       _read
 0000:54BB       _signal
 0000:5522       _stat
 0000:5555       _strcmp
 0000:5587       _strlen
 0000:55A3       _strncpy
 0000:55E3       _sync
 0000:5606       _umask
 0000:562C       _unlink
 0000:5646       _wait
 0000:5684       _write
 056B:0000       _brksize
 056B:0002       _environ
 056B:0004       _flag
 056B:0006       _elinep
 056B:0008       _null
 056B:000A       _inword
 056B:000C       _e
 056B:0018       _shellname
 056B:0020       _search
 056B:002F       _qflag
 056B:00D0       _restab
 056B:0612       _M
 056B:062A       begbss
 056B:0645       _intr
 056B:0647       _flags
 056B:0661       _inparse
 056B:0674       _func
 056B:0676       _globv
 056B:0680       _dolc
 056B:0682       _line
 056B:0A6A       _gflg
 056B:0A6B       _path
 056B:0A6D       _ifs
 056B:0A6F       _trap
 056B:0A8F       _dolv
 056B:0A91       _shell
 056B:0A93       _errpt
 056B:0A95       _execflg
 056B:0A97       _outtree
 056B:0A99       _vlist
 056B:0A9B       _talking
 056B:0A9D       _temparg
 056B:0AA3       _exstat
 056B:0AA5       _isbreak
 056B:0AA7       _iostack
 056B:0B0F       _areanum
 056B:0B11       _failpt
 056B:0B13       _iolist
 056B:0B15       _prompt
 056B:0B17       _wdlist
 056B:0B19       _ourtrap
 056B:0B29       _homedir
 056B:0B2B       _brklist
 056B:0B2D       _cprompt
 056B:0B2F       _multiline
 056B:0B31       _trapset
 056B:0B33       _yynerrs
 056B:0B36       _errno
 056B:0B3E       ___cleanup
 056B:0B40       _vectab
 056B:0B60       endbss

Program entry point at 0000:0000

