
 Start  Stop   Length Name               Class

 00000H 04179H 0417AH _TEXT              CODE
 04180H 04999H 0081AH _DATA              DATA
 0499AH 05E71H 014D8H _BSS               BSS
 05E72H 05E72H 00000H _BSSEND            BSS
 05E80H 0727FH 01400H _STACK             STACK

  Address         Publics by Name

 0000:0000       $main
 0418:081A       begbss
 0418:1CF2       endbss
 0000:354D       LDIV@
 0000:3556       LMOD@
 0000:3551       LUDIV@
 0000:355B       LUMOD@
 0000:35F0       LXLSH@
 0000:362D       LXMUL@
 0000:360F       LXRSH@
 0000:0AC6       _abort_mined
 0000:3646       _access
 0000:0C37       _alloc
 0000:12C8       _ask_save
 0000:0A5D       _bad_write
 0000:0CB2       _basename
 0000:3660       _bcopy
 0000:351C       _begsig
 0000:1922       _BL
 0418:1009       _blank_line
 0000:039F       _bottom_line
 0418:0FAB       _bot_line
 0000:3681       _brk
 0418:0000       _brksize
 0000:149D       _build_string
 0000:3700       _callm1
 0000:3736       _callm3
 0000:3FA2       _calloc
 0000:3783       _callx
 0000:0AB1       _catch
 0000:2ABC       _change
 0418:1059       _chars_saved
 0000:2737       _checkmark
 0000:32B8       _check_string
 0000:37DE       _close
 0000:2F6A       _compile
 0000:0730       _copy_string
 0000:04C6       _count_chars
 0000:3804       _creat
 0000:1F60       _CTL
 0418:0FAD       _cur_line
 0418:1007       _cur_text
 0000:1DC7       _DCC
 0000:211C       _delete
 0000:0838       _display
 0000:1E24       _DLN
 0000:1828       _DN
 0000:1E54       _DNW
 0000:1E07       _DPC
 0000:1E6C       _DPW
 0000:2688       _DT
 0000:34C6       _dummy_line
 0000:1AA6       _EF
 0000:1934       _EL
 0418:0218       _enter_string
 0418:0002       _environ
 0418:1CC2       _errno
 0000:11E0       _ESC
 0000:1149       _escfunc
 0000:381E       _execl
 0000:3835       _execle
 0000:39F1       _execn
 0000:385B       _execv
 0000:3871       _execve
 0000:3A1E       _exit
 0418:14C1       _exp_buffer
 0000:23A7       _file_insert
 0418:0FB7       _file_name
 0000:1377       _file_status
 0000:06A8       _find_address
 0000:0662       _find_x
 0000:2EBC       _find_y
 0000:2F39       _finished
 0000:0A20       _flush_buffer
 0000:3A75       _fork
 0000:1B88       _forward_scroll
 0000:3FDC       _free
 0000:0C69       _free_space
 0000:0022       _FS
 0000:07FE       _getchar
 0000:3A97       _getpid
 0000:2A02       _get_expression
 0000:17AB       _get_file
 0000:0EC6       _get_line
 0000:15E0       _get_number
 0000:1946       _GOTO
 0000:2A9E       _GR
 0418:0FA9       _header
 0000:1901       _HIGH
 0000:1A68       _HO
 0000:10F8       _I
 0000:2347       _IF
 0000:0C76       _initialize
 0000:1686       _input
 0418:0216       _input_fd
 0000:2018       _insert
 0000:0F65       _install_line
 0000:346C       _in_list
 0000:3AB9       _ioctl
 0000:3D75       _isatty
 0418:0010       _key_map
 0418:0FB5       _last_y
 0000:27BB       _legal
 0000:37C0       _len
 0000:070F       _length_of
 0000:187C       _LF
 0000:1FCA       _LIB
 0418:14BD       _lines_saved
 0000:322B       _line_check
 0000:20E9       _line_delete
 0000:1FE8       _line_insert
 0000:135A       _line_number
 0418:083F       _loading
 0000:0CF0       _load_file
 0000:1911       _LOW
 0000:2AAD       _LR
 0418:0802       _M
 0000:265A       _MA
 0000:0F98       _main
 0000:3DE8       _malloc
 0418:14BB       _mark_line
 0418:14BF       _mark_text
 0000:3163       _match
 0000:1D25       _MN
 0418:0210       _modified
 0000:0524       _move
 0000:1D2F       _move_next_word
 0000:1C5C       _move_previous_word
 0000:1C52       _MP
 0418:0FAF       _nlines
 0418:0220       _normal_video
 0000:1542       _num_out
 0000:404E       _open
 0000:07E0       _open_device
 0418:105D       _out_count
 0000:0BD7       _panic
 0000:19BF       _PD
 0418:021A       _pos_string
 0000:0363       _proceed
 0000:2309       _PT
 0000:1A04       _PU
 0000:090E       _put_line
 0418:0212       _quit
 0000:0B3A       _raw_mode
 0000:10A9       _RD
 0000:4068       _read
 0000:3EB2       _realloc
 0000:3503       _receive
 0000:074F       _reset
 0000:1BD7       _reverse_scroll
 0418:021C       _rev_scroll
 0418:021E       _rev_video
 0418:0214       _rpipe
 0000:18C3       _RT
 0000:1E88       _S
 0000:36BE       _sbrk
 0000:28F2       _scratch_file
 0418:0841       _screen
 0418:0006       _screenmax
 0000:1B52       _SD
 0000:2E12       _search
 0000:34FD       _send
 0000:3509       _sendrec
 0000:07B0       _set_cursor
 0000:2692       _set_up
 0000:29E4       _SF
 0000:0230       _SH
 0000:4095       _signal
 0000:29F3       _SR
 0000:343E       _star
 0418:105F       _stat_visible
 0000:1B04       _SU
 0000:2D02       _substitute
 0418:083D       _tail
 0418:1061       _text_buffer
 0418:0524       _too_long
 0418:0FB1       _top_line
 0418:146B       _typed_expression
 0000:40FC       _unlink
 0000:17F8       _UP
 0418:1CD2       _vectab
 0000:0051       _VI
 0000:4116       _wait
 0000:2556       _WB
 0418:0FB3       _writable
 0000:4154       _write
 0000:08DC       _writeline
 0000:08B2       _write_char
 0000:00A5       _WT
 0418:0839       _x
 0000:10F9       _XT
 0418:083B       _y
 0000:267E       _YA
 0000:27E3       _yank
 0418:0224       _yank_file
 0418:0222       _yank_status
 0418:0004       _ymax
 0000:3A50       __exit
 0418:1CCA       ___cleanup

  Address         Publics by Value

 0000:0000       $main
 0000:0022       _FS
 0000:0051       _VI
 0000:00A5       _WT
 0000:0230       _SH
 0000:0363       _proceed
 0000:039F       _bottom_line
 0000:04C6       _count_chars
 0000:0524       _move
 0000:0662       _find_x
 0000:06A8       _find_address
 0000:070F       _length_of
 0000:0730       _copy_string
 0000:074F       _reset
 0000:07B0       _set_cursor
 0000:07E0       _open_device
 0000:07FE       _getchar
 0000:0838       _display
 0000:08B2       _write_char
 0000:08DC       _writeline
 0000:090E       _put_line
 0000:0A20       _flush_buffer
 0000:0A5D       _bad_write
 0000:0AB1       _catch
 0000:0AC6       _abort_mined
 0000:0B3A       _raw_mode
 0000:0BD7       _panic
 0000:0C37       _alloc
 0000:0C69       _free_space
 0000:0C76       _initialize
 0000:0CB2       _basename
 0000:0CF0       _load_file
 0000:0EC6       _get_line
 0000:0F65       _install_line
 0000:0F98       _main
 0000:10A9       _RD
 0000:10F8       _I
 0000:10F9       _XT
 0000:1149       _escfunc
 0000:11E0       _ESC
 0000:12C8       _ask_save
 0000:135A       _line_number
 0000:1377       _file_status
 0000:149D       _build_string
 0000:1542       _num_out
 0000:15E0       _get_number
 0000:1686       _input
 0000:17AB       _get_file
 0000:17F8       _UP
 0000:1828       _DN
 0000:187C       _LF
 0000:18C3       _RT
 0000:1901       _HIGH
 0000:1911       _LOW
 0000:1922       _BL
 0000:1934       _EL
 0000:1946       _GOTO
 0000:19BF       _PD
 0000:1A04       _PU
 0000:1A68       _HO
 0000:1AA6       _EF
 0000:1B04       _SU
 0000:1B52       _SD
 0000:1B88       _forward_scroll
 0000:1BD7       _reverse_scroll
 0000:1C52       _MP
 0000:1C5C       _move_previous_word
 0000:1D25       _MN
 0000:1D2F       _move_next_word
 0000:1DC7       _DCC
 0000:1E07       _DPC
 0000:1E24       _DLN
 0000:1E54       _DNW
 0000:1E6C       _DPW
 0000:1E88       _S
 0000:1F60       _CTL
 0000:1FCA       _LIB
 0000:1FE8       _line_insert
 0000:2018       _insert
 0000:20E9       _line_delete
 0000:211C       _delete
 0000:2309       _PT
 0000:2347       _IF
 0000:23A7       _file_insert
 0000:2556       _WB
 0000:265A       _MA
 0000:267E       _YA
 0000:2688       _DT
 0000:2692       _set_up
 0000:2737       _checkmark
 0000:27BB       _legal
 0000:27E3       _yank
 0000:28F2       _scratch_file
 0000:29E4       _SF
 0000:29F3       _SR
 0000:2A02       _get_expression
 0000:2A9E       _GR
 0000:2AAD       _LR
 0000:2ABC       _change
 0000:2D02       _substitute
 0000:2E12       _search
 0000:2EBC       _find_y
 0000:2F39       _finished
 0000:2F6A       _compile
 0000:3163       _match
 0000:322B       _line_check
 0000:32B8       _check_string
 0000:343E       _star
 0000:346C       _in_list
 0000:34C6       _dummy_line
 0000:34FD       _send
 0000:3503       _receive
 0000:3509       _sendrec
 0000:351C       _begsig
 0000:354D       LDIV@
 0000:3551       LUDIV@
 0000:3556       LMOD@
 0000:355B       LUMOD@
 0000:35F0       LXLSH@
 0000:360F       LXRSH@
 0000:362D       LXMUL@
 0000:3646       _access
 0000:3660       _bcopy
 0000:3681       _brk
 0000:36BE       _sbrk
 0000:3700       _callm1
 0000:3736       _callm3
 0000:3783       _callx
 0000:37C0       _len
 0000:37DE       _close
 0000:3804       _creat
 0000:381E       _execl
 0000:3835       _execle
 0000:385B       _execv
 0000:3871       _execve
 0000:39F1       _execn
 0000:3A1E       _exit
 0000:3A50       __exit
 0000:3A75       _fork
 0000:3A97       _getpid
 0000:3AB9       _ioctl
 0000:3D75       _isatty
 0000:3DE8       _malloc
 0000:3EB2       _realloc
 0000:3FA2       _calloc
 0000:3FDC       _free
 0000:404E       _open
 0000:4068       _read
 0000:4095       _signal
 0000:40FC       _unlink
 0000:4116       _wait
 0000:4154       _write
 0418:0000       _brksize
 0418:0002       _environ
 0418:0004       _ymax
 0418:0006       _screenmax
 0418:0010       _key_map
 0418:0210       _modified
 0418:0212       _quit
 0418:0214       _rpipe
 0418:0216       _input_fd
 0418:0218       _enter_string
 0418:021A       _pos_string
 0418:021C       _rev_scroll
 0418:021E       _rev_video
 0418:0220       _normal_video
 0418:0222       _yank_status
 0418:0224       _yank_file
 0418:0524       _too_long
 0418:0802       _M
 0418:081A       begbss
 0418:0839       _x
 0418:083B       _y
 0418:083D       _tail
 0418:083F       _loading
 0418:0841       _screen
 0418:0FA9       _header
 0418:0FAB       _bot_line
 0418:0FAD       _cur_line
 0418:0FAF       _nlines
 0418:0FB1       _top_line
 0418:0FB3       _writable
 0418:0FB5       _last_y
 0418:0FB7       _file_name
 0418:1007       _cur_text
 0418:1009       _blank_line
 0418:1059       _chars_saved
 0418:105D       _out_count
 0418:105F       _stat_visible
 0418:1061       _text_buffer
 0418:146B       _typed_expression
 0418:14BB       _mark_line
 0418:14BD       _lines_saved
 0418:14BF       _mark_text
 0418:14C1       _exp_buffer
 0418:1CC2       _errno
 0418:1CCA       ___cleanup
 0418:1CD2       _vectab
 0418:1CF2       endbss

Program entry point at 0000:0000

