
 Start  Stop   Length Name                   Class
 00000H 05148H 05149H _TEXT                  CODE
 05150H 0516FH 00020H _DATAB                 DATA
 05170H 05647H 004D8H _DATA                  DATA
 05648H 05648H 00000H CONST                  CONST
 05648H 05648H 00000H _DATAT                 CONST
 05648H 05745H 000FEH _BSS                   BSS
 05746H 0B7E7H 060A2H C_COMMON               BSS
 0B7E8H 0B7E8H 00000H _DATAU                 BSS
 0B7E8H 0B7E8H 00000H _DATAV                 BSS
 0B7F0H 0B7F0H 00000H @STACK                 STACK

 Origin   Group
 0515:0   DGROUP

  Address         Publics by Name

 0000:0000       $MAIN
 0000:21E5       _advance
 0000:2F4C       _alloc_bit
 0000:334B       _alloc_inode
 0000:3839       _alloc_zone
 0515:0010       _BRKSIZE
 0515:0678       _buf
 0515:5784       _bufs_in_use
 0515:610C       _buf_hash
 0000:502C       _callm1
 0000:506B       _callm3
 0000:50CF       _callx
 0515:0408       _call_vector
 0000:1676       _clear_zone
 0000:45D2       _clock_time
 0000:463F       _cmp_string
 0000:467B       _copy
 0515:0000       _DATA_ORG
 0000:1D8E       _dev_close
 0000:1DBB       _dev_io
 0000:1D5E       _dev_open
 0515:0492       _dmap
 0515:588A       _dont_reply
 0000:3F22       _do_access
 0000:3B12       _do_chdir
 0000:3DCE       _do_chmod
 0000:3E74       _do_chown
 0000:3BAA       _do_chroot
 0000:09D2       _do_close
 0000:05C6       _do_creat
 0000:4206       _do_dup
 0000:44A6       _do_exit
 0000:43F7       _do_fork
 0000:3CDE       _do_fstat
 0000:1E34       _do_ioctl
 0000:29DE       _do_link
 0000:0AAB       _do_lseek
 0000:0722       _do_mknod
 0000:25B4       _do_mount
 0000:0884       _do_open
 0000:18D4       _do_pipe
 0000:0B7A       _do_read
 0000:459B       _do_revive
 0000:453A       _do_set
 0000:3C78       _do_stat
 0000:4155       _do_stime
 0000:42BC       _do_sync
 0000:4139       _do_time
 0000:41B1       _do_tims
 0000:3EFB       _do_umask
 0000:2849       _do_umount
 0000:2B64       _do_unlink
 0000:1C4D       _do_unpause
 0000:40A4       _do_utime
 0000:142A       _do_write
 0000:3515       _dup_inode
 0000:2016       _eat_path
 0515:6698       _END
 0515:614C       _errno
 0515:6150       _err_code
 0000:46F3       _fetch_name
 0515:588C       _filp
 0000:3ABC       _find_filp
 0000:3F88       _forbidden
 0515:5768       _fp
 0515:5D0C       _fproc
 0000:3076       _free_bit
 0000:3458       _free_inode
 0000:38D0       _free_zone
 0515:614E       _front
 0515:5B0C       _fstack
 0515:5880       _fs_call
 0000:4865       _get_base
 0000:352A       _get_block
 0000:39E8       _get_fd
 0000:3A83       _get_filp
 0000:323A       _get_inode
 0000:4868       _GET_SIZE
 0000:30F4       _get_super
 0000:486C       _GET_TOT_MEM
 0515:6154       _inode
 0000:39AD       _invalidate
 0000:206C       _last_dir
 0000:511D       _len
 0000:2D9A       _load_bit_maps
 0515:04E0       _m
 0515:576A       _m1
 0000:001C       _MAIN
 0515:04CA       _max_major
 0000:313A       _mounted
 0000:1782       _new_block
 0000:1FFF       _no_call
 0000:4771       _no_sys
 0000:4783       _panic
 0000:19ED       _pipe_check
 0000:4892       _printk
 0000:47D4       _putc
 0000:3711       _put_block
 0000:32E1       _put_inode
 0515:6694       _rdahedpos
 0515:5888       _rdahed_inode
 0515:5886       _rdwt_err
 0000:13D2       _read_ahead
 0000:11AE       _read_map
 0000:0B91       _read_write
 0515:6152       _rear
 0000:4C8D       _receive
 0000:1B59       _release
 0000:0159       _reply
 0000:1BD7       _revive
 0515:5782       _reviving
 0000:3907       _rw_block
 0000:1F57       _rw_dev
 0000:1FC6       _rw_dev2
 0000:347B       _rw_inode
 0000:31AB       _rw_super
 0000:1346       _rw_user
 0000:318D       _scale_factor
 0000:2336       _search_dir
 0000:4C88       _send
 0000:4C92       _sendrec
 0000:4C92       _SEND_REC
 0515:0012       _SP_LIMIT
 0515:0406       _STACKPT
 0515:5786       _super_block
 0515:5882       _super_user
 0000:1B0E       _suspend
 0515:05F6       _susp_count
 0000:4E54       _sys_abort
 0000:4DB9       _sys_copy
 0000:4D5F       _sys_exec
 0000:4D33       _sys_fork
 0000:4CD1       _sys_getsp
 0000:4D8C       _sys_newmap
 0000:4D04       _sys_sig
 0000:4DF1       _sys_times
 0000:4CA4       _sys_xit
 0000:4E7D       _tell_fs
 0000:2C50       _truncate
 0000:2EA9       _unload_bit_maps
 0515:05F8       _user_path
 0515:5884       _who
 0000:3421       _wipe_inode
 0000:18AE       _zero_block
 0000:9876  Abs  __ACRTUSED
 0000:4EA8       __aNldiv
 0000:4F42       __aNlmul
 0000:4F74       __aNlrem
 0000:5014       __aNlshl
 0000:5020       __aNlshr
 0000:4F42       __aNulmul

  Address         Publics by Value

 0000:0000       $MAIN
 0000:001C       _MAIN
 0000:0159       _reply
 0000:05C6       _do_creat
 0000:0722       _do_mknod
 0000:0884       _do_open
 0000:09D2       _do_close
 0000:0AAB       _do_lseek
 0000:0B7A       _do_read
 0000:0B91       _read_write
 0000:11AE       _read_map
 0000:1346       _rw_user
 0000:13D2       _read_ahead
 0000:142A       _do_write
 0000:1676       _clear_zone
 0000:1782       _new_block
 0000:18AE       _zero_block
 0000:18D4       _do_pipe
 0000:19ED       _pipe_check
 0000:1B0E       _suspend
 0000:1B59       _release
 0000:1BD7       _revive
 0000:1C4D       _do_unpause
 0000:1D5E       _dev_open
 0000:1D8E       _dev_close
 0000:1DBB       _dev_io
 0000:1E34       _do_ioctl
 0000:1F57       _rw_dev
 0000:1FC6       _rw_dev2
 0000:1FFF       _no_call
 0000:2016       _eat_path
 0000:206C       _last_dir
 0000:21E5       _advance
 0000:2336       _search_dir
 0000:25B4       _do_mount
 0000:2849       _do_umount
 0000:29DE       _do_link
 0000:2B64       _do_unlink
 0000:2C50       _truncate
 0000:2D9A       _load_bit_maps
 0000:2EA9       _unload_bit_maps
 0000:2F4C       _alloc_bit
 0000:3076       _free_bit
 0000:30F4       _get_super
 0000:313A       _mounted
 0000:318D       _scale_factor
 0000:31AB       _rw_super
 0000:323A       _get_inode
 0000:32E1       _put_inode
 0000:334B       _alloc_inode
 0000:3421       _wipe_inode
 0000:3458       _free_inode
 0000:347B       _rw_inode
 0000:3515       _dup_inode
 0000:352A       _get_block
 0000:3711       _put_block
 0000:3839       _alloc_zone
 0000:38D0       _free_zone
 0000:3907       _rw_block
 0000:39AD       _invalidate
 0000:39E8       _get_fd
 0000:3A83       _get_filp
 0000:3ABC       _find_filp
 0000:3B12       _do_chdir
 0000:3BAA       _do_chroot
 0000:3C78       _do_stat
 0000:3CDE       _do_fstat
 0000:3DCE       _do_chmod
 0000:3E74       _do_chown
 0000:3EFB       _do_umask
 0000:3F22       _do_access
 0000:3F88       _forbidden
 0000:40A4       _do_utime
 0000:4139       _do_time
 0000:4155       _do_stime
 0000:41B1       _do_tims
 0000:4206       _do_dup
 0000:42BC       _do_sync
 0000:43F7       _do_fork
 0000:44A6       _do_exit
 0000:453A       _do_set
 0000:459B       _do_revive
 0000:45D2       _clock_time
 0000:463F       _cmp_string
 0000:467B       _copy
 0000:46F3       _fetch_name
 0000:4771       _no_sys
 0000:4783       _panic
 0000:47D4       _putc
 0000:4865       _get_base
 0000:4868       _GET_SIZE
 0000:486C       _GET_TOT_MEM
 0000:4892       _printk
 0000:4C88       _send
 0000:4C8D       _receive
 0000:4C92       _SEND_REC
 0000:4C92       _sendrec
 0000:4CA4       _sys_xit
 0000:4CD1       _sys_getsp
 0000:4D04       _sys_sig
 0000:4D33       _sys_fork
 0000:4D5F       _sys_exec
 0000:4D8C       _sys_newmap
 0000:4DB9       _sys_copy
 0000:4DF1       _sys_times
 0000:4E54       _sys_abort
 0000:4E7D       _tell_fs
 0000:4EA8       __aNldiv
 0000:4F42       __aNulmul
 0000:4F42       __aNlmul
 0000:4F74       __aNlrem
 0000:5014       __aNlshl
 0000:5020       __aNlshr
 0000:502C       _callm1
 0000:506B       _callm3
 0000:50CF       _callx
 0000:511D       _len
 0515:0000       _DATA_ORG
 0515:0010       _BRKSIZE
 0515:0012       _SP_LIMIT
 0515:0406       _STACKPT
 0515:0408       _call_vector
 0515:0492       _dmap
 0515:04CA       _max_major
 0515:04E0       _m
 0515:05F6       _susp_count
 0515:05F8       _user_path
 0515:0678       _buf
 0000:9876  Abs  __ACRTUSED
 0515:5768       _fp
 0515:576A       _m1
 0515:5782       _reviving
 0515:5784       _bufs_in_use
 0515:5786       _super_block
 0515:5880       _fs_call
 0515:5882       _super_user
 0515:5884       _who
 0515:5886       _rdwt_err
 0515:5888       _rdahed_inode
 0515:588A       _dont_reply
 0515:588C       _filp
 0515:5B0C       _fstack
 0515:5D0C       _fproc
 0515:610C       _buf_hash
 0515:614C       _errno
 0515:614E       _front
 0515:6150       _err_code
 0515:6152       _rear
 0515:6154       _inode
 0515:6694       _rdahedpos
 0515:6698       _END

Program entry point at 0000:0000
