

 Start  Stop   Length Name                   Class
 00000H 0548AH 0548BH @CODE                  CODE
 0548BH 0548DH 00003H @CODEB                 CODEB
 05490H 054AFH 00020H @DATAB                 DATAB
 054B0H 058A1H 003F2H @DATAC                 DATAC
 058A2H 0596BH 000CAH @DATAI                 DATAI
 0596CH 0596CH 00000H @DATAT                 DATAT
 0596CH 0BB13H 061A8H @DATAU                 DATAU
 0BB14H 0BB14H 00000H @DATAV                 DATAV
 0BB20H 0BB20H 00000H @STACK                 STACK

 Origin   Group
 0000:0   DGROUP

  Address         Publics by Name

 0000:546A       $ISWITCH
 0000:52E3       $LLSHIFT
 0000:530F       $LMUL
 0000:5338       $LRSSHIFT
 0000:5242       $LSDIV
 0000:524C       $LSMOD
 0000:5247       $LUDIV
 0000:5251       $LUMOD
 0000:0000       $MAIN
 0000:BB14       @END
 0000:24AF       ADVANCE
 0000:31D9       ALLOC_BI
 0000:361C       ALLOC_IN
 0000:3B52       ALLOC_ZO
 0000:54A0       BRKSIZE
 0000:59EE       BUF
 0000:AB22       BUFS_IN_
 0000:AADE       BUF_HASH
 0000:5364       CALLM1
 0000:539E       CALLM3
 0000:53F9       CALLX
 0000:58A8       CALL_VEC
 0000:18BE       CLEAR_ZO
 0000:496C       CLOCK_TI
 0000:49D9       CMP_STRI
 0000:4A0B       COPY
 0000:5490       DATA_ORG
 0000:2062       DEV_CLOS
 0000:208E       DEV_IO
 0000:2030       DEV_OPEN
 0000:5932       DMAP
 0000:B198       DONT_REP
 0000:429F       DO_ACCES
 0000:3E3C       DO_CHDIR
 0000:413A       DO_CHMOD
 0000:41EA       DO_CHOWN
 0000:3ECB       DO_CHROO
 0000:0B47       DO_CLOSE
 0000:072E       DO_CREAT
 0000:4567       DO_DUP
 0000:483C       DO_EXIT
 0000:4773       DO_FORK
 0000:3FF3       DO_FSTAT
 0000:2114       DO_IOCTL
 0000:2C7D       DO_LINK
 0000:0C2B       DO_LSEEK
 0000:087B       DO_MKNOD
 0000:2855       DO_MOUNT
 0000:09F5       DO_OPEN
 0000:1B5D       DO_PIPE
 0000:0D09       DO_READ
 0000:493F       DO_REVIV
 0000:48D7       DO_SET
 0000:3F91       DO_STAT
 0000:44B9       DO_STIME
 0000:4633       DO_SYNC
 0000:44A5       DO_TIME
 0000:450D       DO_TIMS
 0000:4278       DO_UMASK
 0000:2AE2       DO_UMOUN
 0000:2DF7       DO_UNLIN
 0000:1F23       DO_UNPAU
 0000:4413       DO_UTIME
 0000:1612       DO_WRITE
 0000:3847       DUP_INOD
 0000:230D       EAT_PATH
 0000:BB12       ERRNO
 0000:B258       ERR_CODE
 0000:4AB7       FETCH_NA
 0000:AB24       FILP
 0000:3DF3       FIND_FIL
 0000:4302       FORBIDDE
 0000:B194       FP
 0000:ADA4       FPROC
 0000:3328       FREE_BIT
 0000:3769       FREE_INO
 0000:3C02       FREE_ZON
 0000:AB1E       FRONT
 0000:B25A       FSTACK
 0000:B1D6       FS_CALL
 0000:4C18       GET_BASE
 0000:3854       GET_BLOC
 0000:3D25       GET_FD
 0000:3DBD       GET_FILP
 0000:350F       GET_INOD
 0000:4C1B       GET_SIZE
 0000:33D6       GET_SUPE
 0000:4C1F       GET_TOT_
 0000:B45A       INODE
 0000:3CF0       INVALIDA
 0000:2360       LAST_DIR
 0000:5445       LEN
 0000:3024       LOAD_BIT
 0000:B1A4       M
 0000:B1BC       M1
 0000:0019       MAIN
 0000:596A       MAX_MAJO
 0000:3411       MOUNTED
 0000:19D9       NEW_BLOC
 0000:22FE       NO_CALL
 0000:4B3A       NO_SYS
 0000:4B44       PANIC
 0000:1CB2       PIPE_CHE
 0000:4C45       PRINTK
 0000:4B8F       PUTC
 0000:3A23       PUT_BLOC
 0000:35AE       PUT_INOD
 0000:B19E       RDAHEDPO
 0000:B1A2       RDAHED_I
 0000:5984       RDWT_ERR
 0000:15C0       READ_AHE
 0000:1321       READ_MAP
 0000:0D16       READ_WRI
 0000:AB20       REAR
 0000:5096       RECEIVE
 0000:1E20       RELEASE
 0000:0184       REPLY
 0000:1EA6       REVIVE
 0000:B19C       REVIVING
 0000:3C3C       RW_BLOCK
 0000:2259       RW_DEV
 0000:22B5       RW_DEV2
 0000:378C       RW_INODE
 0000:347F       RW_SUPER
 0000:1529       RW_USER
 0000:3460       SCALE_FA
 0000:25F3       SEARCH_D
 0000:5090       SEND
 0000:509C       SENDREC
 0000:509C       SEND_REC
 0000:54A2       SP_LIMIT
 0000:58A6       STACKPT
 0000:B99A       SUPER_BL
 0000:B196       SUPER_US
 0000:1DC7       SUSPEND
 0000:B19A       SUSP_COU
 0000:520B       SYS_ABOR
 0000:5173       SYS_COPY
 0000:5139       SYS_EXEC
 0000:511A       SYS_FORK
 0000:50CC       SYS_GETS
 0000:5156       SYS_NEWM
 0000:50F3       SYS_SIG
 0000:51A2       SYS_TIME
 0000:50AF       SYS_XIT
 0000:5224       TELL_FS
 0000:2EDC       TRUNCATE
 0000:314B       UNLOAD_B
 0000:B1D8       USER_PAT
 0000:B1D4       WHO
 0000:3719       WIPE_INO
 0000:1B25       ZERO_BLO

  Address         Publics by Value

 0000:0000       $MAIN
 0000:0019       MAIN
 0000:0184       REPLY
 0000:072E       DO_CREAT
 0000:087B       DO_MKNOD
 0000:09F5       DO_OPEN
 0000:0B47       DO_CLOSE
 0000:0C2B       DO_LSEEK
 0000:0D09       DO_READ
 0000:0D16       READ_WRI
 0000:1321       READ_MAP
 0000:1529       RW_USER
 0000:15C0       READ_AHE
 0000:1612       DO_WRITE
 0000:18BE       CLEAR_ZO
 0000:19D9       NEW_BLOC
 0000:1B25       ZERO_BLO
 0000:1B5D       DO_PIPE
 0000:1CB2       PIPE_CHE
 0000:1DC7       SUSPEND
 0000:1E20       RELEASE
 0000:1EA6       REVIVE
 0000:1F23       DO_UNPAU
 0000:2030       DEV_OPEN
 0000:2062       DEV_CLOS
 0000:208E       DEV_IO
 0000:2114       DO_IOCTL
 0000:2259       RW_DEV
 0000:22B5       RW_DEV2
 0000:22FE       NO_CALL
 0000:230D       EAT_PATH
 0000:2360       LAST_DIR
 0000:24AF       ADVANCE
 0000:25F3       SEARCH_D
 0000:2855       DO_MOUNT
 0000:2AE2       DO_UMOUN
 0000:2C7D       DO_LINK
 0000:2DF7       DO_UNLIN
 0000:2EDC       TRUNCATE
 0000:3024       LOAD_BIT
 0000:314B       UNLOAD_B
 0000:31D9       ALLOC_BI
 0000:3328       FREE_BIT
 0000:33D6       GET_SUPE
 0000:3411       MOUNTED
 0000:3460       SCALE_FA
 0000:347F       RW_SUPER
 0000:350F       GET_INOD
 0000:35AE       PUT_INOD
 0000:361C       ALLOC_IN
 0000:3719       WIPE_INO
 0000:3769       FREE_INO
 0000:378C       RW_INODE
 0000:3847       DUP_INOD
 0000:3854       GET_BLOC
 0000:3A23       PUT_BLOC
 0000:3B52       ALLOC_ZO
 0000:3C02       FREE_ZON
 0000:3C3C       RW_BLOCK
 0000:3CF0       INVALIDA
 0000:3D25       GET_FD
 0000:3DBD       GET_FILP
 0000:3DF3       FIND_FIL
 0000:3E3C       DO_CHDIR
 0000:3ECB       DO_CHROO
 0000:3F91       DO_STAT
 0000:3FF3       DO_FSTAT
 0000:413A       DO_CHMOD
 0000:41EA       DO_CHOWN
 0000:4278       DO_UMASK
 0000:429F       DO_ACCES
 0000:4302       FORBIDDE
 0000:4413       DO_UTIME
 0000:44A5       DO_TIME
 0000:44B9       DO_STIME
 0000:450D       DO_TIMS
 0000:4567       DO_DUP
 0000:4633       DO_SYNC
 0000:4773       DO_FORK
 0000:483C       DO_EXIT
 0000:48D7       DO_SET
 0000:493F       DO_REVIV
 0000:496C       CLOCK_TI
 0000:49D9       CMP_STRI
 0000:4A0B       COPY
 0000:4AB7       FETCH_NA
 0000:4B3A       NO_SYS
 0000:4B44       PANIC
 0000:4B8F       PUTC
 0000:4C18       GET_BASE
 0000:4C1B       GET_SIZE
 0000:4C1F       GET_TOT_
 0000:4C45       PRINTK
 0000:5090       SEND
 0000:5096       RECEIVE
 0000:509C       SENDREC
 0000:509C       SEND_REC
 0000:50AF       SYS_XIT
 0000:50CC       SYS_GETS
 0000:50F3       SYS_SIG
 0000:511A       SYS_FORK
 0000:5139       SYS_EXEC
 0000:5156       SYS_NEWM
 0000:5173       SYS_COPY
 0000:51A2       SYS_TIME
 0000:520B       SYS_ABOR
 0000:5224       TELL_FS
 0000:5242       $LSDIV
 0000:5247       $LUDIV
 0000:524C       $LSMOD
 0000:5251       $LUMOD
 0000:52E3       $LLSHIFT
 0000:530F       $LMUL
 0000:5338       $LRSSHIFT
 0000:5364       CALLM1
 0000:539E       CALLM3
 0000:53F9       CALLX
 0000:5445       LEN
 0000:546A       $ISWITCH
 0000:5490       DATA_ORG
 0000:54A0       BRKSIZE
 0000:54A2       SP_LIMIT
 0000:58A6       STACKPT
 0000:58A8       CALL_VEC
 0000:5932       DMAP
 0000:596A       MAX_MAJO
 0000:5984       RDWT_ERR
 0000:59EE       BUF
 0000:AADE       BUF_HASH
 0000:AB1E       FRONT
 0000:AB20       REAR
 0000:AB22       BUFS_IN_
 0000:AB24       FILP
 0000:ADA4       FPROC
 0000:B194       FP
 0000:B196       SUPER_US
 0000:B198       DONT_REP
 0000:B19A       SUSP_COU
 0000:B19C       REVIVING
 0000:B19E       RDAHEDPO
 0000:B1A2       RDAHED_I
 0000:B1A4       M
 0000:B1BC       M1
 0000:B1D4       WHO
 0000:B1D6       FS_CALL
 0000:B1D8       USER_PAT
 0000:B258       ERR_CODE
 0000:B25A       FSTACK
 0000:B45A       INODE
 0000:B99A       SUPER_BL
 0000:BB12       ERRNO
 0000:BB14       @END

Program entry point at 0000:0000
